; Function Attrs: mustprogress uwtable
define void @uspoof_close_75(ptr noundef %sc) local_unnamed_addr #0 {
entry:
  %status = alloca i32, align 4
  store i32 0, ptr %status, align 4
  %call = call noundef ptr @_ZN6icu_759SpoofImpl12validateThisEP13USpoofCheckerR10UErrorCode(ptr noundef %sc, ptr noundef nonnull align 4 dereferenceable(4) %status)
  %isnull = icmp eq ptr %call, null
  br i1 %isnull, label %delete.end, label %delete.notnull

delete.notnull:                                   ; preds = %entry
  %vtable = load ptr, ptr %call, align 8
  %vfn = getelementptr inbounds i8, ptr %vtable, i64 8
  %0 = load ptr, ptr %vfn, align 8
  call void %0(ptr noundef nonnull align 8 dereferenceable(44) %call) #6
  br label %delete.end

delete.end:                                       ; preds = %delete.notnull, %entry
  ret void
}